target datalayout = "e-m:e-p270:32:32-p271:32:32-p272:64:64-i64:64-i128:128-f80:128-n8:16:32:64-S128"
target triple = "x86_64-pc-linux-gnu"

%struct.MRef = type { i64 }
%struct.GCRef = type { i64 }
%struct.GCproto = type { %struct.GCRef, i8, i8, i8, i8, i32, i32, %struct.GCRef, %struct.MRef, %struct.MRef, i32, i32, i32, i8, i8, i16, %struct.GCRef, i32, i32, %struct.MRef, %struct.MRef, %struct.MRef }
%struct.GCstr = type { %struct.GCRef, i8, i8, i8, i8, i32, i32, i32 }

@.str.14 = private unnamed_addr constant [11 x i8] c"builtin:%s\00", align 1
@.str.15 = private unnamed_addr constant [6 x i8] c"%s:%d\00", align 1
@.str.16 = private unnamed_addr constant [6 x i8] c"%p:%d\00", align 1
@.str.17 = private unnamed_addr constant [8 x i8] c"\22%s\22:%d\00", align 1

; Function Attrs: nounwind uwtable
define hidden i32 @lj_debug_line(ptr noundef %0, i32 noundef %1) #0 {
  %3 = alloca i32, align 4
  %4 = alloca ptr, align 8
  %5 = alloca i32, align 4
  %6 = alloca ptr, align 8
  %7 = alloca i32, align 4
  %8 = alloca i32, align 4
  store ptr %0, ptr %4, align 8, !tbaa !24
  store i32 %1, ptr %5, align 4, !tbaa !9
  call void @llvm.lifetime.start.p0(i64 8, ptr %6) #8
  %9 = load ptr, ptr %4, align 8, !tbaa !24
  %10 = getelementptr inbounds nuw %struct.GCproto, ptr %9, i32 0, i32 19
  %11 = getelementptr inbounds nuw %struct.MRef, ptr %10, i32 0, i32 0
  %12 = load i64, ptr %11, align 8, !tbaa !26
  %13 = inttoptr i64 %12 to ptr
  store ptr %13, ptr %6, align 8, !tbaa !29
  %14 = load i32, ptr %5, align 4, !tbaa !9
  %15 = load ptr, ptr %4, align 8, !tbaa !24
  %16 = getelementptr inbounds nuw %struct.GCproto, ptr %15, i32 0, i32 5
  %17 = load i32, ptr %16, align 4, !tbaa !30
  %18 = icmp ule i32 %14, %17
  br i1 %18, label %19, label %80

19:                                               ; preds = %2
  %20 = load ptr, ptr %6, align 8, !tbaa !29
  %21 = icmp ne ptr %20, null
  br i1 %21, label %22, label %80

22:                                               ; preds = %19
  call void @llvm.lifetime.start.p0(i64 4, ptr %7) #8
  %23 = load ptr, ptr %4, align 8, !tbaa !24
  %24 = getelementptr inbounds nuw %struct.GCproto, ptr %23, i32 0, i32 17
  %25 = load i32, ptr %24, align 8, !tbaa !31
  store i32 %25, ptr %7, align 4, !tbaa !9
  %26 = load i32, ptr %5, align 4, !tbaa !9
  %27 = load ptr, ptr %4, align 8, !tbaa !24
  %28 = getelementptr inbounds nuw %struct.GCproto, ptr %27, i32 0, i32 5
  %29 = load i32, ptr %28, align 4, !tbaa !30
  %30 = icmp eq i32 %26, %29
  br i1 %30, label %31, label %37

31:                                               ; preds = %22
  %32 = load i32, ptr %7, align 4, !tbaa !9
  %33 = load ptr, ptr %4, align 8, !tbaa !24
  %34 = getelementptr inbounds nuw %struct.GCproto, ptr %33, i32 0, i32 18
  %35 = load i32, ptr %34, align 4, !tbaa !32
  %36 = add nsw i32 %32, %35
  store i32 %36, ptr %3, align 4
  store i32 1, ptr %8, align 4
  br label %79

37:                                               ; preds = %22
  %38 = load i32, ptr %5, align 4, !tbaa !9
  %39 = add i32 %38, -1
  store i32 %39, ptr %5, align 4, !tbaa !9
  %40 = icmp eq i32 %38, 0
  br i1 %40, label %41, label %43

41:                                               ; preds = %37
  %42 = load i32, ptr %7, align 4, !tbaa !9
  store i32 %42, ptr %3, align 4
  store i32 1, ptr %8, align 4
  br label %79

43:                                               ; preds = %37
  %44 = load ptr, ptr %4, align 8, !tbaa !24
  %45 = getelementptr inbounds nuw %struct.GCproto, ptr %44, i32 0, i32 18
  %46 = load i32, ptr %45, align 4, !tbaa !32
  %47 = icmp slt i32 %46, 256
  br i1 %47, label %48, label %57

48:                                               ; preds = %43
  %49 = load i32, ptr %7, align 4, !tbaa !9
  %50 = load ptr, ptr %6, align 8, !tbaa !29
  %51 = load i32, ptr %5, align 4, !tbaa !9
  %52 = zext i32 %51 to i64
  %53 = getelementptr inbounds nuw i8, ptr %50, i64 %52
  %54 = load i8, ptr %53, align 1, !tbaa !21
  %55 = zext i8 %54 to i32
  %56 = add nsw i32 %49, %55
  store i32 %56, ptr %3, align 4
  store i32 1, ptr %8, align 4
  br label %79

57:                                               ; preds = %43
  %58 = load ptr, ptr %4, align 8, !tbaa !24
  %59 = getelementptr inbounds nuw %struct.GCproto, ptr %58, i32 0, i32 18
  %60 = load i32, ptr %59, align 4, !tbaa !32
  %61 = icmp slt i32 %60, 65536
  br i1 %61, label %62, label %71

62:                                               ; preds = %57
  %63 = load i32, ptr %7, align 4, !tbaa !9
  %64 = load ptr, ptr %6, align 8, !tbaa !29
  %65 = load i32, ptr %5, align 4, !tbaa !9
  %66 = zext i32 %65 to i64
  %67 = getelementptr inbounds nuw i16, ptr %64, i64 %66
  %68 = load i16, ptr %67, align 2, !tbaa !33
  %69 = zext i16 %68 to i32
  %70 = add nsw i32 %63, %69
  store i32 %70, ptr %3, align 4
  store i32 1, ptr %8, align 4
  br label %79

71:                                               ; preds = %57
  %72 = load i32, ptr %7, align 4, !tbaa !9
  %73 = load ptr, ptr %6, align 8, !tbaa !29
  %74 = load i32, ptr %5, align 4, !tbaa !9
  %75 = zext i32 %74 to i64
  %76 = getelementptr inbounds nuw i32, ptr %73, i64 %75
  %77 = load i32, ptr %76, align 4, !tbaa !9
  %78 = add nsw i32 %72, %77
  store i32 %78, ptr %3, align 4
  store i32 1, ptr %8, align 4
  br label %79

79:                                               ; preds = %71, %62, %48, %41, %31
  call void @llvm.lifetime.end.p0(i64 4, ptr %7) #8
  br label %81

80:                                               ; preds = %19, %2
  store i32 0, ptr %3, align 4
  store i32 1, ptr %8, align 4
  br label %81

81:                                               ; preds = %80, %79
  call void @llvm.lifetime.end.p0(i64 8, ptr %6) #8
  %82 = load i32, ptr %3, align 4
  ret i32 %82
}

; Function Attrs: nounwind uwtable
define hidden void @lj_debug_pushloc(ptr noundef %0, ptr noundef %1, i32 noundef %2) #0 {
  %4 = alloca ptr, align 8
  %5 = alloca ptr, align 8
  %6 = alloca i32, align 4
  %7 = alloca ptr, align 8
  %8 = alloca ptr, align 8
  %9 = alloca i32, align 4
  %10 = alloca i32, align 4
  %11 = alloca i32, align 4
  store ptr %0, ptr %4, align 8, !tbaa !4
  store ptr %1, ptr %5, align 8, !tbaa !24
  store i32 %2, ptr %6, align 4, !tbaa !9
  call void @llvm.lifetime.start.p0(i64 8, ptr %7) #8
  %12 = load ptr, ptr %5, align 8, !tbaa !24
  %13 = getelementptr inbounds nuw %struct.GCproto, ptr %12, i32 0, i32 16
  %14 = getelementptr inbounds nuw %struct.GCRef, ptr %13, i32 0, i32 0
  %15 = load i64, ptr %14, align 8, !tbaa !71
  %16 = inttoptr i64 %15 to ptr
  store ptr %16, ptr %7, align 8, !tbaa !65
  call void @llvm.lifetime.start.p0(i64 8, ptr %8) #8
  %17 = load ptr, ptr %7, align 8, !tbaa !65
  %18 = getelementptr inbounds %struct.GCstr, ptr %17, i64 1
  store ptr %18, ptr %8, align 8, !tbaa !35
  call void @llvm.lifetime.start.p0(i64 4, ptr %9) #8
  call void @llvm.lifetime.start.p0(i64 4, ptr %10) #8
  %19 = load ptr, ptr %7, align 8, !tbaa !65
  %20 = getelementptr inbounds nuw %struct.GCstr, ptr %19, i32 0, i32 7
  %21 = load i32, ptr %20, align 4, !tbaa !67
  store i32 %21, ptr %10, align 4, !tbaa !9
  call void @llvm.lifetime.start.p0(i64 4, ptr %11) #8
  %22 = load ptr, ptr %5, align 8, !tbaa !24
  %23 = load i32, ptr %6, align 4, !tbaa !9
  %24 = call i32 @lj_debug_line(ptr noundef %22, i32 noundef %23)
  store i32 %24, ptr %11, align 4, !tbaa !9
  %25 = load ptr, ptr %5, align 8, !tbaa !24
  %26 = getelementptr inbounds nuw %struct.GCproto, ptr %25, i32 0, i32 17
  %27 = load i32, ptr %26, align 8, !tbaa !31
  %28 = icmp eq i32 %27, -1
  br i1 %28, label %29, label %33

29:                                               ; preds = %3
  %30 = load ptr, ptr %4, align 8, !tbaa !4
  %31 = load ptr, ptr %8, align 8, !tbaa !35
  %32 = call ptr (ptr, ptr, ...) @lj_strfmt_pushf(ptr noundef %30, ptr noundef @.str.14, ptr noundef %31)
  br label %105

33:                                               ; preds = %3
  %34 = load ptr, ptr %8, align 8, !tbaa !35
  %35 = load i8, ptr %34, align 1, !tbaa !21
  %36 = sext i8 %35 to i32
  %37 = icmp eq i32 %36, 64
  br i1 %37, label %38, label %78

38:                                               ; preds = %33
  %39 = load ptr, ptr %8, align 8, !tbaa !35
  %40 = getelementptr inbounds nuw i8, ptr %39, i32 1
  store ptr %40, ptr %8, align 8, !tbaa !35
  %41 = load i32, ptr %10, align 4, !tbaa !9
  %42 = add i32 %41, -1
  store i32 %42, ptr %10, align 4, !tbaa !9
  %43 = load i32, ptr %10, align 4, !tbaa !9
  store i32 %43, ptr %9, align 4, !tbaa !9
  br label %44

44:                                               ; preds = %70, %38
  %45 = load i32, ptr %9, align 4, !tbaa !9
  %46 = icmp ugt i32 %45, 0
  br i1 %46, label %47, label %73

47:                                               ; preds = %44
  %48 = load ptr, ptr %8, align 8, !tbaa !35
  %49 = load i32, ptr %9, align 4, !tbaa !9
  %50 = zext i32 %49 to i64
  %51 = getelementptr inbounds nuw i8, ptr %48, i64 %50
  %52 = load i8, ptr %51, align 1, !tbaa !21
  %53 = sext i8 %52 to i32
  %54 = icmp eq i32 %53, 47
  br i1 %54, label %63, label %55

55:                                               ; preds = %47
  %56 = load ptr, ptr %8, align 8, !tbaa !35
  %57 = load i32, ptr %9, align 4, !tbaa !9
  %58 = zext i32 %57 to i64
  %59 = getelementptr inbounds nuw i8, ptr %56, i64 %58
  %60 = load i8, ptr %59, align 1, !tbaa !21
  %61 = sext i8 %60 to i32
  %62 = icmp eq i32 %61, 92
  br i1 %62, label %63, label %69

63:                                               ; preds = %55, %47
  %64 = load i32, ptr %9, align 4, !tbaa !9
  %65 = add i32 %64, 1
  %66 = load ptr, ptr %8, align 8, !tbaa !35
  %67 = zext i32 %65 to i64
  %68 = getelementptr inbounds nuw i8, ptr %66, i64 %67
  store ptr %68, ptr %8, align 8, !tbaa !35
  br label %73

69:                                               ; preds = %55
  br label %70

70:                                               ; preds = %69
  %71 = load i32, ptr %9, align 4, !tbaa !9
  %72 = add i32 %71, -1
  store i32 %72, ptr %9, align 4, !tbaa !9
  br label %44, !llvm.loop !72

73:                                               ; preds = %63, %44
  %74 = load ptr, ptr %4, align 8, !tbaa !4
  %75 = load ptr, ptr %8, align 8, !tbaa !35
  %76 = load i32, ptr %11, align 4, !tbaa !9
  %77 = call ptr (ptr, ptr, ...) @lj_strfmt_pushf(ptr noundef %74, ptr noundef @.str.15, ptr noundef %75, i32 noundef %76)
  br label %104

78:                                               ; preds = %33
  %79 = load i32, ptr %10, align 4, !tbaa !9
  %80 = icmp ugt i32 %79, 40
  br i1 %80, label %81, label %86

81:                                               ; preds = %78
  %82 = load ptr, ptr %4, align 8, !tbaa !4
  %83 = load ptr, ptr %5, align 8, !tbaa !24
  %84 = load i32, ptr %11, align 4, !tbaa !9
  %85 = call ptr (ptr, ptr, ...) @lj_strfmt_pushf(ptr noundef %82, ptr noundef @.str.16, ptr noundef %83, i32 noundef %84)
  br label %103

86:                                               ; preds = %78
  %87 = load ptr, ptr %8, align 8, !tbaa !35
  %88 = load i8, ptr %87, align 1, !tbaa !21
  %89 = sext i8 %88 to i32
  %90 = icmp eq i32 %89, 61
  br i1 %90, label %91, label %97

91:                                               ; preds = %86
  %92 = load ptr, ptr %4, align 8, !tbaa !4
  %93 = load ptr, ptr %8, align 8, !tbaa !35
  %94 = getelementptr inbounds i8, ptr %93, i64 1
  %95 = load i32, ptr %11, align 4, !tbaa !9
  %96 = call ptr (ptr, ptr, ...) @lj_strfmt_pushf(ptr noundef %92, ptr noundef @.str.15, ptr noundef %94, i32 noundef %95)
  br label %102

97:                                               ; preds = %86
  %98 = load ptr, ptr %4, align 8, !tbaa !4
  %99 = load ptr, ptr %8, align 8, !tbaa !35
  %100 = load i32, ptr %11, align 4, !tbaa !9
  %101 = call ptr (ptr, ptr, ...) @lj_strfmt_pushf(ptr noundef %98, ptr noundef @.str.17, ptr noundef %99, i32 noundef %100)
  br label %102

102:                                              ; preds = %97, %91
  br label %103

103:                                              ; preds = %102, %81
  br label %104

104:                                              ; preds = %103, %73
  br label %105

105:                                              ; preds = %104, %29
  call void @llvm.lifetime.end.p0(i64 4, ptr %11) #8
  call void @llvm.lifetime.end.p0(i64 4, ptr %10) #8
  call void @llvm.lifetime.end.p0(i64 4, ptr %9) #8
  call void @llvm.lifetime.end.p0(i64 8, ptr %8) #8
  call void @llvm.lifetime.end.p0(i64 8, ptr %7) #8
  ret void
}