; Function Attrs: nounwind uwtable
define hidden void @lj_debug_pushloc(ptr noundef %0, ptr noundef %1, i32 noundef %2) local_unnamed_addr #4 {
  %4 = getelementptr inbounds nuw i8, ptr %1, i64 64
  %5 = load i64, ptr %4, align 8, !tbaa !54
  %6 = inttoptr i64 %5 to ptr
  %7 = getelementptr inbounds nuw i8, ptr %6, i64 24
  %8 = getelementptr inbounds nuw i8, ptr %6, i64 20
  %9 = load i32, ptr %8, align 4, !tbaa !51
  %10 = getelementptr inbounds nuw i8, ptr %1, i64 80
  %11 = load i64, ptr %10, align 8, !tbaa !19
  %12 = inttoptr i64 %11 to ptr
  %13 = getelementptr inbounds nuw i8, ptr %1, i64 12
  %14 = load i32, ptr %13, align 4, !tbaa !22
  %15 = icmp ule i32 %2, %14
  %16 = icmp ne i64 %11, 0
  %or.cond.i = select i1 %15, i1 %16, i1 false
  %17 = getelementptr inbounds nuw i8, ptr %1, i64 72
  %18 = load i32, ptr %17, align 8, !tbaa !23
  br i1 %or.cond.i, label %19, label %lj_debug_line.exit

19:                                               ; preds = %3
  %20 = icmp eq i32 %2, %14
  br i1 %20, label %21, label %25

21:                                               ; preds = %19
  %22 = getelementptr inbounds nuw i8, ptr %1, i64 76
  %23 = load i32, ptr %22, align 4, !tbaa !24
  %24 = add nsw i32 %23, %18
  br label %lj_debug_line.exit

25:                                               ; preds = %19
  %26 = add i32 %2, -1
  %27 = icmp eq i32 %2, 0
  br i1 %27, label %lj_debug_line.exit, label %28

28:                                               ; preds = %25
  %29 = getelementptr inbounds nuw i8, ptr %1, i64 76
  %30 = load i32, ptr %29, align 4, !tbaa !24
  %31 = icmp slt i32 %30, 256
  br i1 %31, label %32, label %38

32:                                               ; preds = %28
  %33 = zext i32 %26 to i64
  %34 = getelementptr inbounds nuw i8, ptr %12, i64 %33
  %35 = load i8, ptr %34, align 1, !tbaa !15
  %36 = zext i8 %35 to i32
  %37 = add nsw i32 %18, %36
  br label %lj_debug_line.exit

38:                                               ; preds = %28
  %39 = icmp samesign ult i32 %30, 65536
  %40 = zext i32 %26 to i64
  br i1 %39, label %41, label %46

41:                                               ; preds = %38
  %42 = getelementptr inbounds nuw i16, ptr %12, i64 %40
  %43 = load i16, ptr %42, align 2, !tbaa !25
  %44 = zext i16 %43 to i32
  %45 = add nsw i32 %18, %44
  br label %lj_debug_line.exit

46:                                               ; preds = %38
  %47 = getelementptr inbounds nuw i32, ptr %12, i64 %40
  %48 = load i32, ptr %47, align 4, !tbaa !18
  %49 = add nsw i32 %48, %18
  br label %lj_debug_line.exit

lj_debug_line.exit:                               ; preds = %3, %21, %25, %32, %41, %46
  %.1.i = phi i32 [ %24, %21 ], [ %37, %32 ], [ %45, %41 ], [ %49, %46 ], [ %18, %25 ], [ 0, %3 ]
  %50 = icmp eq i32 %18, -1
  br i1 %50, label %51, label %53

51:                                               ; preds = %lj_debug_line.exit
  %52 = tail call ptr (ptr, ptr, ...) @lj_strfmt_pushf(ptr noundef %0, ptr noundef nonnull @.str.14, ptr noundef nonnull %7) #11
  br label %78

53:                                               ; preds = %lj_debug_line.exit
  %54 = load i8, ptr %7, align 1, !tbaa !15
  %55 = icmp eq i8 %54, 64
  br i1 %55, label %56, label %67

56:                                               ; preds = %53
  %57 = getelementptr inbounds nuw i8, ptr %6, i64 25
  br label %58

58:                                               ; preds = %59, %56
  %.033.in = phi i32 [ %9, %56 ], [ %.033, %59 ]
  %.033 = add i32 %.033.in, -1
  %.not = icmp eq i32 %.033, 0
  br i1 %.not, label %.loopexit, label %59

59:                                               ; preds = %58
  %60 = zext i32 %.033 to i64
  %61 = getelementptr inbounds nuw i8, ptr %57, i64 %60
  %62 = load i8, ptr %61, align 1, !tbaa !15
  switch i8 %62, label %58 [
    i8 47, label %63
    i8 92, label %63
  ], !llvm.loop !55

63:                                               ; preds = %59, %59
  %64 = zext i32 %.033.in to i64
  %65 = getelementptr inbounds nuw i8, ptr %57, i64 %64
  br label %.loopexit

.loopexit:                                        ; preds = %58, %63
  %.0 = phi ptr [ %65, %63 ], [ %57, %58 ]
  %66 = tail call ptr (ptr, ptr, ...) @lj_strfmt_pushf(ptr noundef %0, ptr noundef nonnull @.str.15, ptr noundef nonnull %.0, i32 noundef %.1.i) #11
  br label %78

67:                                               ; preds = %53
  %68 = icmp ugt i32 %9, 40
  br i1 %68, label %69, label %71

69:                                               ; preds = %67
  %70 = tail call ptr (ptr, ptr, ...) @lj_strfmt_pushf(ptr noundef %0, ptr noundef nonnull @.str.16, ptr noundef nonnull %1, i32 noundef %.1.i) #11
  br label %78

71:                                               ; preds = %67
  %72 = icmp eq i8 %54, 61
  br i1 %72, label %73, label %76

73:                                               ; preds = %71
  %74 = getelementptr inbounds nuw i8, ptr %6, i64 25
  %75 = tail call ptr (ptr, ptr, ...) @lj_strfmt_pushf(ptr noundef %0, ptr noundef nonnull @.str.15, ptr noundef nonnull %74, i32 noundef %.1.i) #11
  br label %78

76:                                               ; preds = %71
  %77 = tail call ptr (ptr, ptr, ...) @lj_strfmt_pushf(ptr noundef %0, ptr noundef nonnull @.str.17, ptr noundef nonnull %7, i32 noundef %.1.i) #11
  br label %78

78:                                               ; preds = %.loopexit, %73, %76, %69, %51
  ret void
}